ccopy_reg
_reconstructor
p0
(csklearn.linear_model.stochastic_gradient
SGDClassifier
p1
c__builtin__
object
p2
Ntp3
Rp4
(dp5
S't_'
p6
F96.0
sS'n_jobs'
p7
I1
sS'shuffle'
p8
I01
sS'verbose'
p9
I0
sS'classes_'
p10
cnumpy.core.multiarray
_reconstruct
p11
(cnumpy
ndarray
p12
(I0
tp13
S'b'
p14
tp15
Rp16
(I1
(I3
tp17
cnumpy
dtype
p18
(S'i8'
p19
I0
I1
tp20
Rp21
(I3
S'<'
p22
NNNI-1
I-1
I0
tp23
bI00
S'\x00\x00\x00\x00\x00\x00\x00\x00\x01\x00\x00\x00\x00\x00\x00\x00\x02\x00\x00\x00\x00\x00\x00\x00'
p24
tp25
bsS'class_weight'
p26
NsS'fit_intercept'
p27
I01
sS'penalty'
p28
S'l2'
p29
sS'random_state'
p30
NsS'_sklearn_version'
p31
S'0.18.1'
p32
sS'loss_function'
p33
csklearn.linear_model.sgd_fast
Hinge
p34
(F1.0
tp35
Rp36
sS'C'
p37
F1.0
sS'n_iter'
p38
I5
sS'epsilon'
p39
F0.1
sS'learning_rate'
p40
S'optimal'
p41
sS'coef_'
p42
g11
(g12
(I0
tp43
g14
tp44
Rp45
(I1
(I3
I2
tp46
g18
(S'f8'
p47
I0
I1
tp48
Rp49
(I3
S'<'
p50
NNNI-1
I-1
I0
tp51
bI00
S"\xab\xaaf\xb7]\x1f!@|{Fw\x98\xc1'\xc0\x0e\xa7\x94u\x9f\xda\x19\xc0\x0e\xa7\x94u\x9f\xda\x19\xc0\xad\xaaf\xb7]\x1f!\xc0z{Fw\x98\xc1'@"
p52
tp53
bsS'alpha'
p54
F0.0001
sS'intercept_'
p55
g11
(g12
(I0
tp56
g14
tp57
Rp58
(I1
(I3
tp59
g49
I00
S'5\x1dI\x1d\xf6\xec\xf2\xbf.\xdc\x8d\x1cU[\xf1?*\xe1bn\xe9\xec\xf2\xbf'
p60
tp61
bsS'_expanded_class_weight'
p62
g11
(g12
(I0
tp63
g14
tp64
Rp65
(I1
(I3
tp66
g49
I00
S'\x00\x00\x00\x00\x00\x00\xf0?\x00\x00\x00\x00\x00\x00\xf0?\x00\x00\x00\x00\x00\x00\xf0?'
p67
tp68
bsS'warm_start'
p69
I00
sS'loss'
p70
S'hinge'
p71
sS'eta0'
p72
F0.0
sS'l1_ratio'
p73
F0.15
sS'average'
p74
I00
sS'power_t'
p75
F0.5
sb.