ccopy_reg
_reconstructor
p0
(csklearn.feature_extraction.text
TfidfVectorizer
p1
c__builtin__
object
p2
Ntp3
Rp4
(dp5
S'decode_error'
p6
Vstrict
p7
sS'vocabulary'
p8
NsS'encoding'
p9
Vutf-8
p10
sS'token_pattern'
p11
V(?u)\u005cb\u005cw\u005cw+\u005cb
p12
sS'analyzer'
p13
Vword
p14
sS'ngram_range'
p15
(I1
I1
tp16
sS'preprocessor'
p17
NsS'max_df'
p18
F1.0
sS'min_df'
p19
I10
sS'max_features'
p20
I50
sS'fixed_vocabulary_'
p21
I00
sS'stop_words_'
p22
c__builtin__
set
p23
((lp24
Vpoint
p25
aVsoon
p26
aVmeters
p27
aVapply
p28
aV250
p29
aVsubscribeclick
p30
aV25
p31
aV20
p32
aVaheadcharging
p33
aVnotification
p34
aVvehicle
p35
aV500
p36
aVelectric
p37
aV400
p38
aVstop
p39
aValert
p40
aV100
p41
aV15
p42
aVlevel
p43
aVcar
p44
aVsmart
p45
aValertvehicle
p46
atp47
Rp48
sS'binary'
p49
I00
sS'lowercase'
p50
I01
sS'stop_words'
p51
S'english'
p52
sS'tokenizer'
p53
NsS'vocabulary_'
p54
(dp55
Vcharge
p56
cnumpy.core.multiarray
scalar
p57
(cnumpy
dtype
p58
(S'i8'
p59
I0
I1
tp60
Rp61
(I3
S'<'
p62
NNNI-1
I-1
I0
tp63
bS'\x00\x00\x00\x00\x00\x00\x00\x00'
p64
tp65
Rp66
sVcharging
p67
g57
(g61
S'\x01\x00\x00\x00\x00\x00\x00\x00'
p68
tp69
Rp70
ssS'_sklearn_version'
p71
S'0.18.1'
p72
sS'dtype'
p73
cnumpy
int64
p74
sS'input'
p75
Vcontent
p76
sS'_tfidf'
p77
g0
(csklearn.feature_extraction.text
TfidfTransformer
p78
g2
Ntp79
Rp80
(dp81
S'smooth_idf'
p82
I01
sg71
g72
sS'_idf_diag'
p83
g0
(cscipy.sparse.csr
csr_matrix
p84
g2
Ntp85
Rp86
(dp87
S'indices'
p88
cnumpy.core.multiarray
_reconstruct
p89
(cnumpy
ndarray
p90
(I0
tp91
S'b'
p92
tp93
Rp94
(I1
(I2
tp95
g58
(S'i4'
p96
I0
I1
tp97
Rp98
(I3
S'<'
p99
NNNI-1
I-1
I0
tp100
bI00
S'\x00\x00\x00\x00\x01\x00\x00\x00'
p101
tp102
bsS'indptr'
p103
g89
(g90
(I0
tp104
g92
tp105
Rp106
(I1
(I3
tp107
g98
I00
S'\x00\x00\x00\x00\x01\x00\x00\x00\x02\x00\x00\x00'
p108
tp109
bsS'maxprint'
p110
I50
sS'_shape'
p111
(I2
I2
tp112
sS'data'
p113
g89
(g90
(I0
tp114
g92
tp115
Rp116
(I1
(I2
tp117
g58
(S'f8'
p118
I0
I1
tp119
Rp120
(I3
S'<'
p121
NNNI-1
I-1
I0
tp122
bI00
S'\xc0D|\xd2T\xac\xf7?\xc0D|\xd2T\xac\xf7?'
p123
tp124
bsbsS'use_idf'
p125
I01
sS'sublinear_tf'
p126
I00
sS'norm'
p127
Vl2
p128
sbsS'strip_accents'
p129
Nsb.